target datalayout = "e-m:e-p270:32:32-p271:32:32-p272:64:64-i64:64-i128:128-f80:128-n8:16:32:64-S128"
target triple = "x86_64-pc-linux-gnu"

%struct.lxb_html_token_t = type { ptr, ptr, i64, i64, ptr, ptr, ptr, ptr, ptr, i64, i64, i32 }
%struct.lxb_html_token_attr = type { ptr, ptr, ptr, ptr, ptr, ptr, i64, ptr, ptr, i32 }

; Function Attrs: nounwind uwtable
define hidden ptr @lxb_html_token_attr_append(ptr noundef %0, ptr noundef %1) #0 {
  %3 = alloca ptr, align 8
  %4 = alloca ptr, align 8
  %5 = alloca ptr, align 8
  %6 = alloca ptr, align 8
  store ptr %0, ptr %4, align 8
  store ptr %1, ptr %5, align 8
  %7 = load ptr, ptr %5, align 8
  %8 = call ptr @lxb_html_token_attr_create(ptr noundef %7)
  store ptr %8, ptr %6, align 8
  %9 = load ptr, ptr %6, align 8
  %10 = icmp eq ptr %9, null
  br i1 %10, label %11, label %12

11:                                               ; preds = %2
  store ptr null, ptr %3, align 8
  br label %40

12:                                               ; preds = %2
  %13 = load ptr, ptr %4, align 8
  %14 = getelementptr inbounds %struct.lxb_html_token_t, ptr %13, i32 0, i32 7
  %15 = load ptr, ptr %14, align 8
  %16 = icmp eq ptr %15, null
  br i1 %16, label %17, label %25

17:                                               ; preds = %12
  %18 = load ptr, ptr %6, align 8
  %19 = load ptr, ptr %4, align 8
  %20 = getelementptr inbounds %struct.lxb_html_token_t, ptr %19, i32 0, i32 6
  store ptr %18, ptr %20, align 8
  %21 = load ptr, ptr %6, align 8
  %22 = load ptr, ptr %4, align 8
  %23 = getelementptr inbounds %struct.lxb_html_token_t, ptr %22, i32 0, i32 7
  store ptr %21, ptr %23, align 8
  %24 = load ptr, ptr %6, align 8
  store ptr %24, ptr %3, align 8
  br label %40

25:                                               ; preds = %12
  %26 = load ptr, ptr %6, align 8
  %27 = load ptr, ptr %4, align 8
  %28 = getelementptr inbounds %struct.lxb_html_token_t, ptr %27, i32 0, i32 7
  %29 = load ptr, ptr %28, align 8
  %30 = getelementptr inbounds %struct.lxb_html_token_attr, ptr %29, i32 0, i32 7
  store ptr %26, ptr %30, align 8
  %31 = load ptr, ptr %4, align 8
  %32 = getelementptr inbounds %struct.lxb_html_token_t, ptr %31, i32 0, i32 7
  %33 = load ptr, ptr %32, align 8
  %34 = load ptr, ptr %6, align 8
  %35 = getelementptr inbounds %struct.lxb_html_token_attr, ptr %34, i32 0, i32 8
  store ptr %33, ptr %35, align 8
  %36 = load ptr, ptr %6, align 8
  %37 = load ptr, ptr %4, align 8
  %38 = getelementptr inbounds %struct.lxb_html_token_t, ptr %37, i32 0, i32 7
  store ptr %36, ptr %38, align 8
  %39 = load ptr, ptr %6, align 8
  store ptr %39, ptr %3, align 8
  br label %40

40:                                               ; preds = %25, %17, %11
  %41 = load ptr, ptr %3, align 8
  ret ptr %41
}