; Function Attrs: nounwind uwtable
define hidden ptr @lxb_html_token_attr_append(ptr nocapture noundef %0, ptr noundef %1) local_unnamed_addr #0 {
  %3 = tail call ptr @lxb_html_token_attr_create(ptr noundef %1) #8
  %4 = icmp eq ptr %3, null
  br i1 %4, label %15, label %5

5:                                                ; preds = %2
  %6 = getelementptr inbounds i8, ptr %0, i64 56
  %7 = load ptr, ptr %6, align 8
  %8 = icmp eq ptr %7, null
  br i1 %8, label %9, label %11

9:                                                ; preds = %5
  %10 = getelementptr inbounds i8, ptr %0, i64 48
  store ptr %3, ptr %10, align 8
  br label %.sink.split

11:                                               ; preds = %5
  %12 = getelementptr inbounds i8, ptr %7, i64 56
  store ptr %3, ptr %12, align 8
  %13 = load ptr, ptr %6, align 8
  %14 = getelementptr inbounds i8, ptr %3, i64 64
  store ptr %13, ptr %14, align 8
  br label %.sink.split

.sink.split:                                      ; preds = %9, %11
  store ptr %3, ptr %6, align 8
  br label %15

15:                                               ; preds = %.sink.split, %2
  ret ptr %3
}